; Function Attrs: mustprogress null_pointer_is_valid sspstrong uwtable
define void @_ZN8UatModelC2EP7QObjectP8epan_uat(ptr noundef align 8 dereferenceable_or_null(80) %0, ptr noundef %1, ptr noundef %2) unnamed_addr #0 align 2 personality ptr @__gxx_personality_v0 {
  tail call void @_ZN19QAbstractTableModelC2EP7QObject(ptr noundef align 8 dereferenceable_or_null(16) %0, ptr noundef %1)
  store ptr getelementptr inbounds nuw inrange(-16, 392) (i8, ptr @_ZTV8UatModel, i64 16), ptr %0, align 8
  %4 = getelementptr inbounds nuw i8, ptr %0, i64 16
  store ptr null, ptr %4, align 8
  %5 = getelementptr inbounds nuw i8, ptr %0, i64 24
  store i8 0, ptr %5, align 8
  %6 = getelementptr inbounds nuw i8, ptr %0, i64 32
  tail call void @llvm.memset.p0.i64(ptr noundef nonnull align 8 dereferenceable(48) %6, i8 0, i64 48, i1 false)
  invoke void @_ZN8UatModel7loadUatEP8epan_uat(ptr noundef align 8 dereferenceable_or_null(80) %0, ptr noundef %2)
          to label %7 unwind label %8

7:                                                ; preds = %3
  ret void

8:                                                ; preds = %3
  %9 = landingpad { ptr, i32 }
          cleanup
  %10 = getelementptr inbounds nuw i8, ptr %0, i64 56
  tail call void @_ZN17QArrayDataPointerI4QMapIi7QStringEED2Ev(ptr noundef nonnull align 8 dereferenceable_or_null(24) %10) #24
  tail call void @_ZN5QListIbED2Ev(ptr noundef nonnull align 8 dereferenceable_or_null(24) %6) #24
  tail call void @_ZN19QAbstractTableModelD2Ev(ptr noundef align 8 dereferenceable_or_null(16) %0) #24
  resume { ptr, i32 } %9
}